ARM GAS  C:\Users\samoc\AppData\Local\Temp\ccrvlJyd.s 			page 1


   1              		.cpu cortex-m3
   2              		.eabi_attribute 20, 1
   3              		.eabi_attribute 21, 1
   4              		.eabi_attribute 23, 3
   5              		.eabi_attribute 24, 1
   6              		.eabi_attribute 25, 1
   7              		.eabi_attribute 26, 1
   8              		.eabi_attribute 30, 1
   9              		.eabi_attribute 34, 1
  10              		.eabi_attribute 18, 4
  11              		.file	"syscalls.c"
  12              		.text
  13              	.Ltext0:
  14              		.cfi_sections	.debug_frame
  15              		.section	.text.initialise_monitor_handles,"ax",%progbits
  16              		.align	1
  17              		.global	initialise_monitor_handles
  18              		.arch armv7-m
  19              		.syntax unified
  20              		.thumb
  21              		.thumb_func
  22              		.fpu softvfp
  24              	initialise_monitor_handles:
  25              	.LFB25:
  26              		.file 1 "Core/Src/syscalls.c"
   1:Core/Src/syscalls.c **** /**
   2:Core/Src/syscalls.c ****  ******************************************************************************
   3:Core/Src/syscalls.c ****  * @file      syscalls.c
   4:Core/Src/syscalls.c ****  * @author    Auto-generated by STM32CubeIDE
   5:Core/Src/syscalls.c ****  * @brief     STM32CubeIDE Minimal System calls file
   6:Core/Src/syscalls.c ****  *
   7:Core/Src/syscalls.c ****  *            For more information about which c-functions
   8:Core/Src/syscalls.c ****  *            need which of these lowlevel functions
   9:Core/Src/syscalls.c ****  *            please consult the Newlib libc-manual
  10:Core/Src/syscalls.c ****  ******************************************************************************
  11:Core/Src/syscalls.c ****  * @attention
  12:Core/Src/syscalls.c ****  *
  13:Core/Src/syscalls.c ****  * Copyright (c) 2021 STMicroelectronics.
  14:Core/Src/syscalls.c ****  * All rights reserved.
  15:Core/Src/syscalls.c ****  *
  16:Core/Src/syscalls.c ****  * This software is licensed under terms that can be found in the LICENSE file
  17:Core/Src/syscalls.c ****  * in the root directory of this software component.
  18:Core/Src/syscalls.c ****  * If no LICENSE file comes with this software, it is provided AS-IS.
  19:Core/Src/syscalls.c ****  *
  20:Core/Src/syscalls.c ****  ******************************************************************************
  21:Core/Src/syscalls.c ****  */
  22:Core/Src/syscalls.c **** 
  23:Core/Src/syscalls.c **** /* Includes */
  24:Core/Src/syscalls.c **** #include <sys/stat.h>
  25:Core/Src/syscalls.c **** #include <stdlib.h>
  26:Core/Src/syscalls.c **** #include <errno.h>
  27:Core/Src/syscalls.c **** #include <stdio.h>
  28:Core/Src/syscalls.c **** #include <signal.h>
  29:Core/Src/syscalls.c **** #include <time.h>
  30:Core/Src/syscalls.c **** #include <sys/time.h>
  31:Core/Src/syscalls.c **** #include <sys/times.h>
  32:Core/Src/syscalls.c **** 
ARM GAS  C:\Users\samoc\AppData\Local\Temp\ccrvlJyd.s 			page 2


  33:Core/Src/syscalls.c **** 
  34:Core/Src/syscalls.c **** /* Variables */
  35:Core/Src/syscalls.c **** extern int __io_putchar(int ch) __attribute__((weak));
  36:Core/Src/syscalls.c **** extern int __io_getchar(void) __attribute__((weak));
  37:Core/Src/syscalls.c **** 
  38:Core/Src/syscalls.c **** 
  39:Core/Src/syscalls.c **** char *__env[1] = { 0 };
  40:Core/Src/syscalls.c **** char **environ = __env;
  41:Core/Src/syscalls.c **** 
  42:Core/Src/syscalls.c **** 
  43:Core/Src/syscalls.c **** /* Functions */
  44:Core/Src/syscalls.c **** void initialise_monitor_handles()
  45:Core/Src/syscalls.c **** {
  27              		.loc 1 45 1 view -0
  28              		.cfi_startproc
  29              		@ args = 0, pretend = 0, frame = 0
  30              		@ frame_needed = 0, uses_anonymous_args = 0
  31              		@ link register save eliminated.
  46:Core/Src/syscalls.c **** }
  32              		.loc 1 46 1 view .LVU1
  33 0000 7047     		bx	lr
  34              		.cfi_endproc
  35              	.LFE25:
  37              		.section	.text._getpid,"ax",%progbits
  38              		.align	1
  39              		.global	_getpid
  40              		.syntax unified
  41              		.thumb
  42              		.thumb_func
  43              		.fpu softvfp
  45              	_getpid:
  46              	.LFB26:
  47:Core/Src/syscalls.c **** 
  48:Core/Src/syscalls.c **** int _getpid(void)
  49:Core/Src/syscalls.c **** {
  47              		.loc 1 49 1 view -0
  48              		.cfi_startproc
  49              		@ args = 0, pretend = 0, frame = 0
  50              		@ frame_needed = 0, uses_anonymous_args = 0
  51              		@ link register save eliminated.
  50:Core/Src/syscalls.c **** 	return 1;
  52              		.loc 1 50 2 view .LVU3
  51:Core/Src/syscalls.c **** }
  53              		.loc 1 51 1 is_stmt 0 view .LVU4
  54 0000 0120     		movs	r0, #1
  55 0002 7047     		bx	lr
  56              		.cfi_endproc
  57              	.LFE26:
  59              		.section	.text._kill,"ax",%progbits
  60              		.align	1
  61              		.global	_kill
  62              		.syntax unified
  63              		.thumb
  64              		.thumb_func
  65              		.fpu softvfp
  67              	_kill:
  68              	.LVL0:
ARM GAS  C:\Users\samoc\AppData\Local\Temp\ccrvlJyd.s 			page 3


  69              	.LFB27:
  52:Core/Src/syscalls.c **** 
  53:Core/Src/syscalls.c **** int _kill(int pid, int sig)
  54:Core/Src/syscalls.c **** {
  70              		.loc 1 54 1 is_stmt 1 view -0
  71              		.cfi_startproc
  72              		@ args = 0, pretend = 0, frame = 0
  73              		@ frame_needed = 0, uses_anonymous_args = 0
  74              		.loc 1 54 1 is_stmt 0 view .LVU6
  75 0000 08B5     		push	{r3, lr}
  76              	.LCFI0:
  77              		.cfi_def_cfa_offset 8
  78              		.cfi_offset 3, -8
  79              		.cfi_offset 14, -4
  55:Core/Src/syscalls.c **** 	errno = EINVAL;
  80              		.loc 1 55 2 is_stmt 1 view .LVU7
  81 0002 FFF7FEFF 		bl	__errno
  82              	.LVL1:
  83              		.loc 1 55 8 is_stmt 0 view .LVU8
  84 0006 1623     		movs	r3, #22
  85 0008 0360     		str	r3, [r0]
  56:Core/Src/syscalls.c **** 	return -1;
  86              		.loc 1 56 2 is_stmt 1 view .LVU9
  57:Core/Src/syscalls.c **** }
  87              		.loc 1 57 1 is_stmt 0 view .LVU10
  88 000a 4FF0FF30 		mov	r0, #-1
  89 000e 08BD     		pop	{r3, pc}
  90              		.cfi_endproc
  91              	.LFE27:
  93              		.section	.text._exit,"ax",%progbits
  94              		.align	1
  95              		.global	_exit
  96              		.syntax unified
  97              		.thumb
  98              		.thumb_func
  99              		.fpu softvfp
 101              	_exit:
 102              	.LVL2:
 103              	.LFB28:
  58:Core/Src/syscalls.c **** 
  59:Core/Src/syscalls.c **** void _exit (int status)
  60:Core/Src/syscalls.c **** {
 104              		.loc 1 60 1 is_stmt 1 view -0
 105              		.cfi_startproc
 106              		@ Volatile: function does not return.
 107              		@ args = 0, pretend = 0, frame = 0
 108              		@ frame_needed = 0, uses_anonymous_args = 0
 109              		.loc 1 60 1 is_stmt 0 view .LVU12
 110 0000 08B5     		push	{r3, lr}
 111              	.LCFI1:
 112              		.cfi_def_cfa_offset 8
 113              		.cfi_offset 3, -8
 114              		.cfi_offset 14, -4
  61:Core/Src/syscalls.c **** 	_kill(status, -1);
 115              		.loc 1 61 2 is_stmt 1 view .LVU13
 116 0002 4FF0FF31 		mov	r1, #-1
 117 0006 FFF7FEFF 		bl	_kill
ARM GAS  C:\Users\samoc\AppData\Local\Temp\ccrvlJyd.s 			page 4


 118              	.LVL3:
 119              	.L6:
  62:Core/Src/syscalls.c **** 	while (1) {}		/* Make sure we hang here */
 120              		.loc 1 62 2 discriminator 1 view .LVU14
 121              		.loc 1 62 13 discriminator 1 view .LVU15
 122              		.loc 1 62 8 discriminator 1 view .LVU16
 123 000a FEE7     		b	.L6
 124              		.cfi_endproc
 125              	.LFE28:
 127              		.section	.text._read,"ax",%progbits
 128              		.align	1
 129              		.weak	_read
 130              		.syntax unified
 131              		.thumb
 132              		.thumb_func
 133              		.fpu softvfp
 135              	_read:
 136              	.LVL4:
 137              	.LFB29:
  63:Core/Src/syscalls.c **** }
  64:Core/Src/syscalls.c **** 
  65:Core/Src/syscalls.c **** __attribute__((weak)) int _read(int file, char *ptr, int len)
  66:Core/Src/syscalls.c **** {
 138              		.loc 1 66 1 view -0
 139              		.cfi_startproc
 140              		@ args = 0, pretend = 0, frame = 0
 141              		@ frame_needed = 0, uses_anonymous_args = 0
 142              		.loc 1 66 1 is_stmt 0 view .LVU18
 143 0000 70B5     		push	{r4, r5, r6, lr}
 144              	.LCFI2:
 145              		.cfi_def_cfa_offset 16
 146              		.cfi_offset 4, -16
 147              		.cfi_offset 5, -12
 148              		.cfi_offset 6, -8
 149              		.cfi_offset 14, -4
 150 0002 0C46     		mov	r4, r1
 151 0004 1646     		mov	r6, r2
  67:Core/Src/syscalls.c **** 	int DataIdx;
 152              		.loc 1 67 2 is_stmt 1 view .LVU19
  68:Core/Src/syscalls.c **** 
  69:Core/Src/syscalls.c **** 	for (DataIdx = 0; DataIdx < len; DataIdx++)
 153              		.loc 1 69 2 view .LVU20
 154              	.LVL5:
 155              		.loc 1 69 15 is_stmt 0 view .LVU21
 156 0006 0025     		movs	r5, #0
 157              	.LVL6:
 158              	.L9:
 159              		.loc 1 69 20 is_stmt 1 discriminator 1 view .LVU22
 160              		.loc 1 69 2 is_stmt 0 discriminator 1 view .LVU23
 161 0008 B542     		cmp	r5, r6
 162 000a 07DA     		bge	.L12
  70:Core/Src/syscalls.c **** 	{
  71:Core/Src/syscalls.c **** 		*ptr++ = __io_getchar();
 163              		.loc 1 71 3 is_stmt 1 discriminator 3 view .LVU24
 164              		.loc 1 71 12 is_stmt 0 discriminator 3 view .LVU25
 165 000c FFF7FEFF 		bl	__io_getchar
 166              	.LVL7:
ARM GAS  C:\Users\samoc\AppData\Local\Temp\ccrvlJyd.s 			page 5


 167              		.loc 1 71 7 discriminator 3 view .LVU26
 168 0010 2146     		mov	r1, r4
 169              	.LVL8:
 170              		.loc 1 71 10 discriminator 3 view .LVU27
 171 0012 01F8010B 		strb	r0, [r1], #1
 172              	.LVL9:
  69:Core/Src/syscalls.c **** 	{
 173              		.loc 1 69 35 is_stmt 1 discriminator 3 view .LVU28
  69:Core/Src/syscalls.c **** 	{
 174              		.loc 1 69 42 is_stmt 0 discriminator 3 view .LVU29
 175 0016 0135     		adds	r5, r5, #1
 176              	.LVL10:
 177              		.loc 1 71 7 discriminator 3 view .LVU30
 178 0018 0C46     		mov	r4, r1
 179 001a F5E7     		b	.L9
 180              	.L12:
  72:Core/Src/syscalls.c **** 	}
  73:Core/Src/syscalls.c **** 
  74:Core/Src/syscalls.c **** return len;
 181              		.loc 1 74 1 is_stmt 1 view .LVU31
  75:Core/Src/syscalls.c **** }
 182              		.loc 1 75 1 is_stmt 0 view .LVU32
 183 001c 3046     		mov	r0, r6
 184 001e 70BD     		pop	{r4, r5, r6, pc}
 185              		.loc 1 75 1 view .LVU33
 186              		.cfi_endproc
 187              	.LFE29:
 189              		.section	.text._write,"ax",%progbits
 190              		.align	1
 191              		.weak	_write
 192              		.syntax unified
 193              		.thumb
 194              		.thumb_func
 195              		.fpu softvfp
 197              	_write:
 198              	.LVL11:
 199              	.LFB30:
  76:Core/Src/syscalls.c **** 
  77:Core/Src/syscalls.c **** __attribute__((weak)) int _write(int file, char *ptr, int len)
  78:Core/Src/syscalls.c **** {
 200              		.loc 1 78 1 is_stmt 1 view -0
 201              		.cfi_startproc
 202              		@ args = 0, pretend = 0, frame = 0
 203              		@ frame_needed = 0, uses_anonymous_args = 0
 204              		.loc 1 78 1 is_stmt 0 view .LVU35
 205 0000 70B5     		push	{r4, r5, r6, lr}
 206              	.LCFI3:
 207              		.cfi_def_cfa_offset 16
 208              		.cfi_offset 4, -16
 209              		.cfi_offset 5, -12
 210              		.cfi_offset 6, -8
 211              		.cfi_offset 14, -4
 212 0002 0C46     		mov	r4, r1
 213 0004 1646     		mov	r6, r2
  79:Core/Src/syscalls.c **** 	int DataIdx;
 214              		.loc 1 79 2 is_stmt 1 view .LVU36
  80:Core/Src/syscalls.c **** 
ARM GAS  C:\Users\samoc\AppData\Local\Temp\ccrvlJyd.s 			page 6


  81:Core/Src/syscalls.c **** 	for (DataIdx = 0; DataIdx < len; DataIdx++)
 215              		.loc 1 81 2 view .LVU37
 216              	.LVL12:
 217              		.loc 1 81 15 is_stmt 0 view .LVU38
 218 0006 0025     		movs	r5, #0
 219              	.LVL13:
 220              	.L14:
 221              		.loc 1 81 20 is_stmt 1 discriminator 1 view .LVU39
 222              		.loc 1 81 2 is_stmt 0 discriminator 1 view .LVU40
 223 0008 B542     		cmp	r5, r6
 224 000a 05DA     		bge	.L17
  82:Core/Src/syscalls.c **** 	{
  83:Core/Src/syscalls.c **** 		__io_putchar(*ptr++);
 225              		.loc 1 83 3 is_stmt 1 discriminator 3 view .LVU41
 226              	.LVL14:
 227              		.loc 1 83 3 is_stmt 0 discriminator 3 view .LVU42
 228 000c 14F8010B 		ldrb	r0, [r4], #1	@ zero_extendqisi2
 229              	.LVL15:
 230              		.loc 1 83 3 discriminator 3 view .LVU43
 231 0010 FFF7FEFF 		bl	__io_putchar
 232              	.LVL16:
  81:Core/Src/syscalls.c **** 	{
 233              		.loc 1 81 35 is_stmt 1 discriminator 3 view .LVU44
  81:Core/Src/syscalls.c **** 	{
 234              		.loc 1 81 42 is_stmt 0 discriminator 3 view .LVU45
 235 0014 0135     		adds	r5, r5, #1
 236              	.LVL17:
  81:Core/Src/syscalls.c **** 	{
 237              		.loc 1 81 42 discriminator 3 view .LVU46
 238 0016 F7E7     		b	.L14
 239              	.L17:
  84:Core/Src/syscalls.c **** 	}
  85:Core/Src/syscalls.c **** 	return len;
 240              		.loc 1 85 2 is_stmt 1 view .LVU47
  86:Core/Src/syscalls.c **** }
 241              		.loc 1 86 1 is_stmt 0 view .LVU48
 242 0018 3046     		mov	r0, r6
 243 001a 70BD     		pop	{r4, r5, r6, pc}
 244              		.loc 1 86 1 view .LVU49
 245              		.cfi_endproc
 246              	.LFE30:
 248              		.section	.text._close,"ax",%progbits
 249              		.align	1
 250              		.global	_close
 251              		.syntax unified
 252              		.thumb
 253              		.thumb_func
 254              		.fpu softvfp
 256              	_close:
 257              	.LVL18:
 258              	.LFB31:
  87:Core/Src/syscalls.c **** 
  88:Core/Src/syscalls.c **** int _close(int file)
  89:Core/Src/syscalls.c **** {
 259              		.loc 1 89 1 is_stmt 1 view -0
 260              		.cfi_startproc
 261              		@ args = 0, pretend = 0, frame = 0
ARM GAS  C:\Users\samoc\AppData\Local\Temp\ccrvlJyd.s 			page 7


 262              		@ frame_needed = 0, uses_anonymous_args = 0
 263              		@ link register save eliminated.
  90:Core/Src/syscalls.c **** 	return -1;
 264              		.loc 1 90 2 view .LVU51
  91:Core/Src/syscalls.c **** }
 265              		.loc 1 91 1 is_stmt 0 view .LVU52
 266 0000 4FF0FF30 		mov	r0, #-1
 267              	.LVL19:
 268              		.loc 1 91 1 view .LVU53
 269 0004 7047     		bx	lr
 270              		.cfi_endproc
 271              	.LFE31:
 273              		.section	.text._fstat,"ax",%progbits
 274              		.align	1
 275              		.global	_fstat
 276              		.syntax unified
 277              		.thumb
 278              		.thumb_func
 279              		.fpu softvfp
 281              	_fstat:
 282              	.LVL20:
 283              	.LFB32:
  92:Core/Src/syscalls.c **** 
  93:Core/Src/syscalls.c **** 
  94:Core/Src/syscalls.c **** int _fstat(int file, struct stat *st)
  95:Core/Src/syscalls.c **** {
 284              		.loc 1 95 1 is_stmt 1 view -0
 285              		.cfi_startproc
 286              		@ args = 0, pretend = 0, frame = 0
 287              		@ frame_needed = 0, uses_anonymous_args = 0
 288              		@ link register save eliminated.
  96:Core/Src/syscalls.c **** 	st->st_mode = S_IFCHR;
 289              		.loc 1 96 2 view .LVU55
 290              		.loc 1 96 14 is_stmt 0 view .LVU56
 291 0000 4FF40053 		mov	r3, #8192
 292 0004 4B60     		str	r3, [r1, #4]
  97:Core/Src/syscalls.c **** 	return 0;
 293              		.loc 1 97 2 is_stmt 1 view .LVU57
  98:Core/Src/syscalls.c **** }
 294              		.loc 1 98 1 is_stmt 0 view .LVU58
 295 0006 0020     		movs	r0, #0
 296              	.LVL21:
 297              		.loc 1 98 1 view .LVU59
 298 0008 7047     		bx	lr
 299              		.cfi_endproc
 300              	.LFE32:
 302              		.section	.text._isatty,"ax",%progbits
 303              		.align	1
 304              		.global	_isatty
 305              		.syntax unified
 306              		.thumb
 307              		.thumb_func
 308              		.fpu softvfp
 310              	_isatty:
 311              	.LVL22:
 312              	.LFB33:
  99:Core/Src/syscalls.c **** 
ARM GAS  C:\Users\samoc\AppData\Local\Temp\ccrvlJyd.s 			page 8


 100:Core/Src/syscalls.c **** int _isatty(int file)
 101:Core/Src/syscalls.c **** {
 313              		.loc 1 101 1 is_stmt 1 view -0
 314              		.cfi_startproc
 315              		@ args = 0, pretend = 0, frame = 0
 316              		@ frame_needed = 0, uses_anonymous_args = 0
 317              		@ link register save eliminated.
 102:Core/Src/syscalls.c **** 	return 1;
 318              		.loc 1 102 2 view .LVU61
 103:Core/Src/syscalls.c **** }
 319              		.loc 1 103 1 is_stmt 0 view .LVU62
 320 0000 0120     		movs	r0, #1
 321              	.LVL23:
 322              		.loc 1 103 1 view .LVU63
 323 0002 7047     		bx	lr
 324              		.cfi_endproc
 325              	.LFE33:
 327              		.section	.text._lseek,"ax",%progbits
 328              		.align	1
 329              		.global	_lseek
 330              		.syntax unified
 331              		.thumb
 332              		.thumb_func
 333              		.fpu softvfp
 335              	_lseek:
 336              	.LVL24:
 337              	.LFB34:
 104:Core/Src/syscalls.c **** 
 105:Core/Src/syscalls.c **** int _lseek(int file, int ptr, int dir)
 106:Core/Src/syscalls.c **** {
 338              		.loc 1 106 1 is_stmt 1 view -0
 339              		.cfi_startproc
 340              		@ args = 0, pretend = 0, frame = 0
 341              		@ frame_needed = 0, uses_anonymous_args = 0
 342              		@ link register save eliminated.
 107:Core/Src/syscalls.c **** 	return 0;
 343              		.loc 1 107 2 view .LVU65
 108:Core/Src/syscalls.c **** }
 344              		.loc 1 108 1 is_stmt 0 view .LVU66
 345 0000 0020     		movs	r0, #0
 346              	.LVL25:
 347              		.loc 1 108 1 view .LVU67
 348 0002 7047     		bx	lr
 349              		.cfi_endproc
 350              	.LFE34:
 352              		.section	.text._open,"ax",%progbits
 353              		.align	1
 354              		.global	_open
 355              		.syntax unified
 356              		.thumb
 357              		.thumb_func
 358              		.fpu softvfp
 360              	_open:
 361              	.LVL26:
 362              	.LFB35:
 109:Core/Src/syscalls.c **** 
 110:Core/Src/syscalls.c **** int _open(char *path, int flags, ...)
ARM GAS  C:\Users\samoc\AppData\Local\Temp\ccrvlJyd.s 			page 9


 111:Core/Src/syscalls.c **** {
 363              		.loc 1 111 1 is_stmt 1 view -0
 364              		.cfi_startproc
 365              		@ args = 4, pretend = 12, frame = 0
 366              		@ frame_needed = 0, uses_anonymous_args = 1
 367              		@ link register save eliminated.
 368              		.loc 1 111 1 is_stmt 0 view .LVU69
 369 0000 0EB4     		push	{r1, r2, r3}
 370              	.LCFI4:
 371              		.cfi_def_cfa_offset 12
 372              		.cfi_offset 1, -12
 373              		.cfi_offset 2, -8
 374              		.cfi_offset 3, -4
 112:Core/Src/syscalls.c **** 	/* Pretend like we always fail */
 113:Core/Src/syscalls.c **** 	return -1;
 375              		.loc 1 113 2 is_stmt 1 view .LVU70
 114:Core/Src/syscalls.c **** }
 376              		.loc 1 114 1 is_stmt 0 view .LVU71
 377 0002 4FF0FF30 		mov	r0, #-1
 378              	.LVL27:
 379              		.loc 1 114 1 view .LVU72
 380 0006 03B0     		add	sp, sp, #12
 381              	.LCFI5:
 382              		.cfi_restore 3
 383              		.cfi_restore 2
 384              		.cfi_restore 1
 385              		.cfi_def_cfa_offset 0
 386 0008 7047     		bx	lr
 387              		.cfi_endproc
 388              	.LFE35:
 390              		.section	.text._wait,"ax",%progbits
 391              		.align	1
 392              		.global	_wait
 393              		.syntax unified
 394              		.thumb
 395              		.thumb_func
 396              		.fpu softvfp
 398              	_wait:
 399              	.LVL28:
 400              	.LFB36:
 115:Core/Src/syscalls.c **** 
 116:Core/Src/syscalls.c **** int _wait(int *status)
 117:Core/Src/syscalls.c **** {
 401              		.loc 1 117 1 is_stmt 1 view -0
 402              		.cfi_startproc
 403              		@ args = 0, pretend = 0, frame = 0
 404              		@ frame_needed = 0, uses_anonymous_args = 0
 405              		.loc 1 117 1 is_stmt 0 view .LVU74
 406 0000 08B5     		push	{r3, lr}
 407              	.LCFI6:
 408              		.cfi_def_cfa_offset 8
 409              		.cfi_offset 3, -8
 410              		.cfi_offset 14, -4
 118:Core/Src/syscalls.c **** 	errno = ECHILD;
 411              		.loc 1 118 2 is_stmt 1 view .LVU75
 412 0002 FFF7FEFF 		bl	__errno
 413              	.LVL29:
ARM GAS  C:\Users\samoc\AppData\Local\Temp\ccrvlJyd.s 			page 10


 414              		.loc 1 118 8 is_stmt 0 view .LVU76
 415 0006 0A23     		movs	r3, #10
 416 0008 0360     		str	r3, [r0]
 119:Core/Src/syscalls.c **** 	return -1;
 417              		.loc 1 119 2 is_stmt 1 view .LVU77
 120:Core/Src/syscalls.c **** }
 418              		.loc 1 120 1 is_stmt 0 view .LVU78
 419 000a 4FF0FF30 		mov	r0, #-1
 420 000e 08BD     		pop	{r3, pc}
 421              		.cfi_endproc
 422              	.LFE36:
 424              		.section	.text._unlink,"ax",%progbits
 425              		.align	1
 426              		.global	_unlink
 427              		.syntax unified
 428              		.thumb
 429              		.thumb_func
 430              		.fpu softvfp
 432              	_unlink:
 433              	.LVL30:
 434              	.LFB37:
 121:Core/Src/syscalls.c **** 
 122:Core/Src/syscalls.c **** int _unlink(char *name)
 123:Core/Src/syscalls.c **** {
 435              		.loc 1 123 1 is_stmt 1 view -0
 436              		.cfi_startproc
 437              		@ args = 0, pretend = 0, frame = 0
 438              		@ frame_needed = 0, uses_anonymous_args = 0
 439              		.loc 1 123 1 is_stmt 0 view .LVU80
 440 0000 08B5     		push	{r3, lr}
 441              	.LCFI7:
 442              		.cfi_def_cfa_offset 8
 443              		.cfi_offset 3, -8
 444              		.cfi_offset 14, -4
 124:Core/Src/syscalls.c **** 	errno = ENOENT;
 445              		.loc 1 124 2 is_stmt 1 view .LVU81
 446 0002 FFF7FEFF 		bl	__errno
 447              	.LVL31:
 448              		.loc 1 124 8 is_stmt 0 view .LVU82
 449 0006 0223     		movs	r3, #2
 450 0008 0360     		str	r3, [r0]
 125:Core/Src/syscalls.c **** 	return -1;
 451              		.loc 1 125 2 is_stmt 1 view .LVU83
 126:Core/Src/syscalls.c **** }
 452              		.loc 1 126 1 is_stmt 0 view .LVU84
 453 000a 4FF0FF30 		mov	r0, #-1
 454 000e 08BD     		pop	{r3, pc}
 455              		.cfi_endproc
 456              	.LFE37:
 458              		.section	.text._times,"ax",%progbits
 459              		.align	1
 460              		.global	_times
 461              		.syntax unified
 462              		.thumb
 463              		.thumb_func
 464              		.fpu softvfp
 466              	_times:
ARM GAS  C:\Users\samoc\AppData\Local\Temp\ccrvlJyd.s 			page 11


 467              	.LVL32:
 468              	.LFB38:
 127:Core/Src/syscalls.c **** 
 128:Core/Src/syscalls.c **** int _times(struct tms *buf)
 129:Core/Src/syscalls.c **** {
 469              		.loc 1 129 1 is_stmt 1 view -0
 470              		.cfi_startproc
 471              		@ args = 0, pretend = 0, frame = 0
 472              		@ frame_needed = 0, uses_anonymous_args = 0
 473              		@ link register save eliminated.
 130:Core/Src/syscalls.c **** 	return -1;
 474              		.loc 1 130 2 view .LVU86
 131:Core/Src/syscalls.c **** }
 475              		.loc 1 131 1 is_stmt 0 view .LVU87
 476 0000 4FF0FF30 		mov	r0, #-1
 477              	.LVL33:
 478              		.loc 1 131 1 view .LVU88
 479 0004 7047     		bx	lr
 480              		.cfi_endproc
 481              	.LFE38:
 483              		.section	.text._stat,"ax",%progbits
 484              		.align	1
 485              		.global	_stat
 486              		.syntax unified
 487              		.thumb
 488              		.thumb_func
 489              		.fpu softvfp
 491              	_stat:
 492              	.LVL34:
 493              	.LFB39:
 132:Core/Src/syscalls.c **** 
 133:Core/Src/syscalls.c **** int _stat(char *file, struct stat *st)
 134:Core/Src/syscalls.c **** {
 494              		.loc 1 134 1 is_stmt 1 view -0
 495              		.cfi_startproc
 496              		@ args = 0, pretend = 0, frame = 0
 497              		@ frame_needed = 0, uses_anonymous_args = 0
 498              		@ link register save eliminated.
 135:Core/Src/syscalls.c **** 	st->st_mode = S_IFCHR;
 499              		.loc 1 135 2 view .LVU90
 500              		.loc 1 135 14 is_stmt 0 view .LVU91
 501 0000 4FF40053 		mov	r3, #8192
 502 0004 4B60     		str	r3, [r1, #4]
 136:Core/Src/syscalls.c **** 	return 0;
 503              		.loc 1 136 2 is_stmt 1 view .LVU92
 137:Core/Src/syscalls.c **** }
 504              		.loc 1 137 1 is_stmt 0 view .LVU93
 505 0006 0020     		movs	r0, #0
 506              	.LVL35:
 507              		.loc 1 137 1 view .LVU94
 508 0008 7047     		bx	lr
 509              		.cfi_endproc
 510              	.LFE39:
 512              		.section	.text._link,"ax",%progbits
 513              		.align	1
 514              		.global	_link
 515              		.syntax unified
ARM GAS  C:\Users\samoc\AppData\Local\Temp\ccrvlJyd.s 			page 12


 516              		.thumb
 517              		.thumb_func
 518              		.fpu softvfp
 520              	_link:
 521              	.LVL36:
 522              	.LFB40:
 138:Core/Src/syscalls.c **** 
 139:Core/Src/syscalls.c **** int _link(char *old, char *new)
 140:Core/Src/syscalls.c **** {
 523              		.loc 1 140 1 is_stmt 1 view -0
 524              		.cfi_startproc
 525              		@ args = 0, pretend = 0, frame = 0
 526              		@ frame_needed = 0, uses_anonymous_args = 0
 527              		.loc 1 140 1 is_stmt 0 view .LVU96
 528 0000 08B5     		push	{r3, lr}
 529              	.LCFI8:
 530              		.cfi_def_cfa_offset 8
 531              		.cfi_offset 3, -8
 532              		.cfi_offset 14, -4
 141:Core/Src/syscalls.c **** 	errno = EMLINK;
 533              		.loc 1 141 2 is_stmt 1 view .LVU97
 534 0002 FFF7FEFF 		bl	__errno
 535              	.LVL37:
 536              		.loc 1 141 8 is_stmt 0 view .LVU98
 537 0006 1F23     		movs	r3, #31
 538 0008 0360     		str	r3, [r0]
 142:Core/Src/syscalls.c **** 	return -1;
 539              		.loc 1 142 2 is_stmt 1 view .LVU99
 143:Core/Src/syscalls.c **** }
 540              		.loc 1 143 1 is_stmt 0 view .LVU100
 541 000a 4FF0FF30 		mov	r0, #-1
 542 000e 08BD     		pop	{r3, pc}
 543              		.cfi_endproc
 544              	.LFE40:
 546              		.section	.text._fork,"ax",%progbits
 547              		.align	1
 548              		.global	_fork
 549              		.syntax unified
 550              		.thumb
 551              		.thumb_func
 552              		.fpu softvfp
 554              	_fork:
 555              	.LFB41:
 144:Core/Src/syscalls.c **** 
 145:Core/Src/syscalls.c **** int _fork(void)
 146:Core/Src/syscalls.c **** {
 556              		.loc 1 146 1 is_stmt 1 view -0
 557              		.cfi_startproc
 558              		@ args = 0, pretend = 0, frame = 0
 559              		@ frame_needed = 0, uses_anonymous_args = 0
 560 0000 08B5     		push	{r3, lr}
 561              	.LCFI9:
 562              		.cfi_def_cfa_offset 8
 563              		.cfi_offset 3, -8
 564              		.cfi_offset 14, -4
 147:Core/Src/syscalls.c **** 	errno = EAGAIN;
 565              		.loc 1 147 2 view .LVU102
ARM GAS  C:\Users\samoc\AppData\Local\Temp\ccrvlJyd.s 			page 13


 566 0002 FFF7FEFF 		bl	__errno
 567              	.LVL38:
 568              		.loc 1 147 8 is_stmt 0 view .LVU103
 569 0006 0B23     		movs	r3, #11
 570 0008 0360     		str	r3, [r0]
 148:Core/Src/syscalls.c **** 	return -1;
 571              		.loc 1 148 2 is_stmt 1 view .LVU104
 149:Core/Src/syscalls.c **** }
 572              		.loc 1 149 1 is_stmt 0 view .LVU105
 573 000a 4FF0FF30 		mov	r0, #-1
 574 000e 08BD     		pop	{r3, pc}
 575              		.cfi_endproc
 576              	.LFE41:
 578              		.section	.text._execve,"ax",%progbits
 579              		.align	1
 580              		.global	_execve
 581              		.syntax unified
 582              		.thumb
 583              		.thumb_func
 584              		.fpu softvfp
 586              	_execve:
 587              	.LVL39:
 588              	.LFB42:
 150:Core/Src/syscalls.c **** 
 151:Core/Src/syscalls.c **** int _execve(char *name, char **argv, char **env)
 152:Core/Src/syscalls.c **** {
 589              		.loc 1 152 1 is_stmt 1 view -0
 590              		.cfi_startproc
 591              		@ args = 0, pretend = 0, frame = 0
 592              		@ frame_needed = 0, uses_anonymous_args = 0
 593              		.loc 1 152 1 is_stmt 0 view .LVU107
 594 0000 08B5     		push	{r3, lr}
 595              	.LCFI10:
 596              		.cfi_def_cfa_offset 8
 597              		.cfi_offset 3, -8
 598              		.cfi_offset 14, -4
 153:Core/Src/syscalls.c **** 	errno = ENOMEM;
 599              		.loc 1 153 2 is_stmt 1 view .LVU108
 600 0002 FFF7FEFF 		bl	__errno
 601              	.LVL40:
 602              		.loc 1 153 8 is_stmt 0 view .LVU109
 603 0006 0C23     		movs	r3, #12
 604 0008 0360     		str	r3, [r0]
 154:Core/Src/syscalls.c **** 	return -1;
 605              		.loc 1 154 2 is_stmt 1 view .LVU110
 155:Core/Src/syscalls.c **** }
 606              		.loc 1 155 1 is_stmt 0 view .LVU111
 607 000a 4FF0FF30 		mov	r0, #-1
 608 000e 08BD     		pop	{r3, pc}
 609              		.cfi_endproc
 610              	.LFE42:
 612              		.global	environ
 613              		.global	__env
 614              		.section	.bss.__env,"aw",%nobits
 615              		.align	2
 618              	__env:
 619 0000 00000000 		.space	4
ARM GAS  C:\Users\samoc\AppData\Local\Temp\ccrvlJyd.s 			page 14


 620              		.section	.data.environ,"aw"
 621              		.align	2
 624              	environ:
 625 0000 00000000 		.word	__env
 626              		.weak	__io_putchar
 627              		.weak	__io_getchar
 628              		.text
 629              	.Letext0:
 630              		.file 2 "c:\\users\\samoc\\.vscode\\extensions\\buzzyelectronics.stm-helper-1.2.9\\armgcc\\arm-non
 631              		.file 3 "c:\\users\\samoc\\.vscode\\extensions\\buzzyelectronics.stm-helper-1.2.9\\armgcc\\arm-non
 632              		.file 4 "c:\\users\\samoc\\.vscode\\extensions\\buzzyelectronics.stm-helper-1.2.9\\armgcc\\arm-non
 633              		.file 5 "c:\\users\\samoc\\.vscode\\extensions\\buzzyelectronics.stm-helper-1.2.9\\armgcc\\lib\\gc
 634              		.file 6 "c:\\users\\samoc\\.vscode\\extensions\\buzzyelectronics.stm-helper-1.2.9\\armgcc\\arm-non
 635              		.file 7 "c:\\users\\samoc\\.vscode\\extensions\\buzzyelectronics.stm-helper-1.2.9\\armgcc\\arm-non
 636              		.file 8 "c:\\users\\samoc\\.vscode\\extensions\\buzzyelectronics.stm-helper-1.2.9\\armgcc\\arm-non
 637              		.file 9 "c:\\users\\samoc\\.vscode\\extensions\\buzzyelectronics.stm-helper-1.2.9\\armgcc\\arm-non
 638              		.file 10 "c:\\users\\samoc\\.vscode\\extensions\\buzzyelectronics.stm-helper-1.2.9\\armgcc\\arm-no
 639              		.file 11 "c:\\users\\samoc\\.vscode\\extensions\\buzzyelectronics.stm-helper-1.2.9\\armgcc\\arm-no
 640              		.file 12 "c:\\users\\samoc\\.vscode\\extensions\\buzzyelectronics.stm-helper-1.2.9\\armgcc\\arm-no
 641              		.file 13 "c:\\users\\samoc\\.vscode\\extensions\\buzzyelectronics.stm-helper-1.2.9\\armgcc\\arm-no
ARM GAS  C:\Users\samoc\AppData\Local\Temp\ccrvlJyd.s 			page 15

